target datalayout = "e-m:e-p270:32:32-p271:32:32-p272:64:64-i64:64-i128:128-f80:128-n8:16:32:64-S128"
target triple = "x86_64-pc-linux-gnu"

%class.ScanTree = type { [1024 x ptr], i32, i32, ptr, i32, i8, i32, i32, i8, [2048 x i32], [2048 x i32], %class.StringList, %class.StringList, ptr, ptr, i8, i8, i64, [2048 x i32], ptr }
%class.StringList = type { %class.Array, i64, i64, [16 x i64], i64 }
%class.Array = type { ptr, i64, i64, i64 }
%struct.FindData = type <{ [2048 x i32], i64, i32, i8, i8, [2 x i8], %class.RarTime, %class.RarTime, %class.RarTime, i32, i8, [3 x i8] }>
%class.RarTime = type { i64 }
%class.FindFile = type { [2048 x i32], i8, ptr }

@.str = private unnamed_addr constant [2 x i32] [i32 42, i32 0], align 4
@.str.1 = private unnamed_addr constant [4 x i32] [i32 42, i32 46, i32 42, i32 0], align 4

; Function Attrs: mustprogress nounwind uwtable
define linkonce_odr void @_ZN7RarTime5ResetEv(ptr noundef nonnull align 8 dereferenceable(8) %0) #4 comdat align 2 {
  %2 = alloca ptr, align 8
  store ptr %0, ptr %2, align 8, !tbaa !73
  %3 = load ptr, ptr %2, align 8
  %4 = getelementptr inbounds nuw %class.RarTime, ptr %3, i32 0, i32 0
  store i64 0, ptr %4, align 8, !tbaa !75
  ret void
}

; Function Attrs: mustprogress uwtable
define linkonce_odr void @_ZN7RarTimeC2Ev(ptr noundef nonnull align 8 dereferenceable(8) %0) unnamed_addr #0 comdat align 2 {
  %2 = alloca ptr, align 8
  store ptr %0, ptr %2, align 8, !tbaa !73
  %3 = load ptr, ptr %2, align 8
  call void @_ZN7RarTime5ResetEv(ptr noundef nonnull align 8 dereferenceable(8) %3)
  ret void
}

; Function Attrs: mustprogress nounwind uwtable
define linkonce_odr noundef i64 @_ZN10StringList10ItemsCountEv(ptr noundef nonnull align 8 dereferenceable(184) %0) #4 comdat align 2 {
  %2 = alloca ptr, align 8
  store ptr %0, ptr %2, align 8, !tbaa !8
  %3 = load ptr, ptr %2, align 8
  %4 = getelementptr inbounds nuw %class.StringList, ptr %3, i32 0, i32 2
  %5 = load i64, ptr %4, align 8, !tbaa !61
  ret i64 %5
}

; Function Attrs: inlinehint mustprogress uwtable
define linkonce_odr void @_ZN8FindDataC2Ev(ptr noundef nonnull align 8 dereferenceable(8237) %0) unnamed_addr #8 comdat align 2 {
  %2 = alloca ptr, align 8
  store ptr %0, ptr %2, align 8, !tbaa !45
  %3 = load ptr, ptr %2, align 8
  %4 = getelementptr inbounds nuw %struct.FindData, ptr %3, i32 0, i32 6
  call void @_ZN7RarTimeC2Ev(ptr noundef nonnull align 8 dereferenceable(8) %4)
  %5 = getelementptr inbounds nuw %struct.FindData, ptr %3, i32 0, i32 7
  call void @_ZN7RarTimeC2Ev(ptr noundef nonnull align 8 dereferenceable(8) %5)
  %6 = getelementptr inbounds nuw %struct.FindData, ptr %3, i32 0, i32 8
  call void @_ZN7RarTimeC2Ev(ptr noundef nonnull align 8 dereferenceable(8) %6)
  ret void
}

; Function Attrs: mustprogress uwtable
define noundef zeroext i1 @_ZN8ScanTree16ExpandFolderMaskEv(ptr noundef nonnull align 8 dereferenceable(33216) %0) #0 align 2 personality ptr @__gxx_personality_v0 {
  %2 = alloca i1, align 1
  %3 = alloca ptr, align 8
  %4 = alloca i8, align 1
  %5 = alloca i32, align 4
  %6 = alloca i32, align 4
  %7 = alloca i32, align 4
  %8 = alloca [2048 x i32], align 16
  %9 = alloca %class.FindFile, align 8
  %10 = alloca ptr, align 8
  %11 = alloca i32, align 4
  %12 = alloca %struct.FindData, align 8
  %13 = alloca ptr, align 8
  store ptr %0, ptr %3, align 8, !tbaa !3
  %14 = load ptr, ptr %3, align 8
  call void @llvm.lifetime.start.p0(i64 1, ptr %4) #12
  store i8 0, ptr %4, align 1, !tbaa !12
  call void @llvm.lifetime.start.p0(i64 4, ptr %5) #12
  store i32 0, ptr %5, align 4, !tbaa !40
  call void @llvm.lifetime.start.p0(i64 4, ptr %6) #12
  store i32 0, ptr %6, align 4, !tbaa !40
  br label %15

15:                                               ; preds = %51, %1
  %16 = getelementptr inbounds nuw %class.ScanTree, ptr %14, i32 0, i32 9
  %17 = load i32, ptr %6, align 4, !tbaa !40
  %18 = sext i32 %17 to i64
  %19 = getelementptr inbounds [2048 x i32], ptr %16, i64 0, i64 %18
  %20 = load i32, ptr %19, align 4, !tbaa !33
  %21 = icmp ne i32 %20, 0
  br i1 %21, label %23, label %22

22:                                               ; preds = %15
  store i32 2, ptr %7, align 4
  br label %54

23:                                               ; preds = %15
  %24 = getelementptr inbounds nuw %class.ScanTree, ptr %14, i32 0, i32 9
  %25 = load i32, ptr %6, align 4, !tbaa !40
  %26 = sext i32 %25 to i64
  %27 = getelementptr inbounds [2048 x i32], ptr %24, i64 0, i64 %26
  %28 = load i32, ptr %27, align 4, !tbaa !33
  %29 = icmp eq i32 %28, 63
  br i1 %29, label %37, label %30

30:                                               ; preds = %23
  %31 = getelementptr inbounds nuw %class.ScanTree, ptr %14, i32 0, i32 9
  %32 = load i32, ptr %6, align 4, !tbaa !40
  %33 = sext i32 %32 to i64
  %34 = getelementptr inbounds [2048 x i32], ptr %31, i64 0, i64 %33
  %35 = load i32, ptr %34, align 4, !tbaa !33
  %36 = icmp eq i32 %35, 42
  br i1 %36, label %37, label %38

37:                                               ; preds = %30, %23
  store i8 1, ptr %4, align 1, !tbaa !12
  br label %38

38:                                               ; preds = %37, %30
  %39 = load i8, ptr %4, align 1, !tbaa !12, !range !26, !noundef !27
  %40 = trunc i8 %39 to i1
  br i1 %40, label %41, label %50

41:                                               ; preds = %38
  %42 = getelementptr inbounds nuw %class.ScanTree, ptr %14, i32 0, i32 9
  %43 = load i32, ptr %6, align 4, !tbaa !40
  %44 = sext i32 %43 to i64
  %45 = getelementptr inbounds [2048 x i32], ptr %42, i64 0, i64 %44
  %46 = load i32, ptr %45, align 4, !tbaa !33
  %47 = call noundef zeroext i1 @_Z9IsPathDivi(i32 noundef %46)
  br i1 %47, label %48, label %50

48:                                               ; preds = %41
  %49 = load i32, ptr %6, align 4, !tbaa !40
  store i32 %49, ptr %5, align 4, !tbaa !40
  store i32 2, ptr %7, align 4
  br label %54

50:                                               ; preds = %41, %38
  br label %51

51:                                               ; preds = %50
  %52 = load i32, ptr %6, align 4, !tbaa !40
  %53 = add nsw i32 %52, 1
  store i32 %53, ptr %6, align 4, !tbaa !40
  br label %15, !llvm.loop !62

54:                                               ; preds = %48, %22
  call void @llvm.lifetime.end.p0(i64 4, ptr %6) #12
  br label %55

55:                                               ; preds = %54
  call void @llvm.lifetime.start.p0(i64 8192, ptr %8) #12
  %56 = getelementptr inbounds [2048 x i32], ptr %8, i64 0, i64 0
  %57 = getelementptr inbounds nuw %class.ScanTree, ptr %14, i32 0, i32 9
  %58 = getelementptr inbounds [2048 x i32], ptr %57, i64 0, i64 0
  call void @_Z8wcsncpyzPwPKwm(ptr noundef %56, ptr noundef %58, i64 noundef 2048)
  %59 = load i32, ptr %5, align 4, !tbaa !40
  %60 = zext i32 %59 to i64
  %61 = getelementptr inbounds nuw [2048 x i32], ptr %8, i64 0, i64 %60
  store i32 0, ptr %61, align 4, !tbaa !33
  %62 = getelementptr inbounds nuw %class.ScanTree, ptr %14, i32 0, i32 11
  call void @_ZN10StringList5ResetEv(ptr noundef nonnull align 8 dereferenceable(184) %62)
  call void @llvm.lifetime.start.p0(i64 8208, ptr %9) #12
  call void @_ZN8FindFileC1Ev(ptr noundef nonnull align 8 dereferenceable(8208) %9)
  %63 = getelementptr inbounds [2048 x i32], ptr %8, i64 0, i64 0
  invoke void @_ZN8FindFile7SetMaskEPKw(ptr noundef nonnull align 8 dereferenceable(8208) %9, ptr noundef %63)
          to label %64 unwind label %97

64:                                               ; preds = %55
  call void @llvm.lifetime.start.p0(i64 8240, ptr %12) #12
  invoke void @_ZN8FindDataC2Ev(ptr noundef nonnull align 8 dereferenceable(8237) %12)
          to label %65 unwind label %101

65:                                               ; preds = %64
  br label %66

66:                                               ; preds = %114, %65
  %67 = invoke noundef zeroext i1 @_ZN8FindFile4NextEP8FindDatab(ptr noundef nonnull align 8 dereferenceable(8208) %9, ptr noundef %12, i1 noundef zeroext false)
          to label %68 unwind label %101

68:                                               ; preds = %66
  br i1 %67, label %69, label %115

69:                                               ; preds = %68
  %70 = getelementptr inbounds nuw %struct.FindData, ptr %12, i32 0, i32 3
  %71 = load i8, ptr %70, align 4, !tbaa !50, !range !26, !noundef !27
  %72 = trunc i8 %71 to i1
  br i1 %72, label %73, label %114

73:                                               ; preds = %69
  %74 = getelementptr inbounds nuw %struct.FindData, ptr %12, i32 0, i32 0
  %75 = getelementptr inbounds [2048 x i32], ptr %74, i64 0, i64 0
  %76 = getelementptr inbounds nuw %class.ScanTree, ptr %14, i32 0, i32 9
  %77 = getelementptr inbounds [2048 x i32], ptr %76, i64 0, i64 0
  %78 = load i32, ptr %5, align 4, !tbaa !40
  %79 = zext i32 %78 to i64
  %80 = getelementptr inbounds nuw i32, ptr %77, i64 %79
  invoke void @_Z8wcsncatzPwPKwm(ptr noundef %75, ptr noundef %80, i64 noundef 2048)
          to label %81 unwind label %101

81:                                               ; preds = %73
  call void @llvm.lifetime.start.p0(i64 8, ptr %13) #12
  %82 = getelementptr inbounds nuw %struct.FindData, ptr %12, i32 0, i32 0
  %83 = getelementptr inbounds [2048 x i32], ptr %82, i64 0, i64 0
  %84 = invoke noundef ptr @_Z11PointToNamePKw(ptr noundef %83)
          to label %85 unwind label %105

85:                                               ; preds = %81
  store ptr %84, ptr %13, align 8, !tbaa !53
  %86 = load ptr, ptr %13, align 8, !tbaa !53
  %87 = call i32 @wcscmp(ptr noundef %86, ptr noundef @.str) #14
  %88 = icmp eq i32 %87, 0
  br i1 %88, label %93, label %89

89:                                               ; preds = %85
  %90 = load ptr, ptr %13, align 8, !tbaa !53
  %91 = call i32 @wcscmp(ptr noundef %90, ptr noundef @.str.1) #14
  %92 = icmp eq i32 %91, 0
  br i1 %92, label %93, label %109

93:                                               ; preds = %89, %85
  %94 = getelementptr inbounds nuw %struct.FindData, ptr %12, i32 0, i32 0
  %95 = getelementptr inbounds [2048 x i32], ptr %94, i64 0, i64 0
  invoke void @_Z18RemoveNameFromPathPw(ptr noundef %95)
          to label %96 unwind label %105

96:                                               ; preds = %93
  br label %109

97:                                               ; preds = %55
  %98 = landingpad { ptr, i32 }
          cleanup
  %99 = extractvalue { ptr, i32 } %98, 0
  store ptr %99, ptr %10, align 8
  %100 = extractvalue { ptr, i32 } %98, 1
  store i32 %100, ptr %11, align 4
  br label %130

101:                                              ; preds = %121, %115, %73, %66, %64
  %102 = landingpad { ptr, i32 }
          cleanup
  %103 = extractvalue { ptr, i32 } %102, 0
  store ptr %103, ptr %10, align 8
  %104 = extractvalue { ptr, i32 } %102, 1
  store i32 %104, ptr %11, align 4
  br label %129

105:                                              ; preds = %109, %93, %81
  %106 = landingpad { ptr, i32 }
          cleanup
  %107 = extractvalue { ptr, i32 } %106, 0
  store ptr %107, ptr %10, align 8
  %108 = extractvalue { ptr, i32 } %106, 1
  store i32 %108, ptr %11, align 4
  call void @llvm.lifetime.end.p0(i64 8, ptr %13) #12
  br label %129

109:                                              ; preds = %96, %89
  %110 = getelementptr inbounds nuw %class.ScanTree, ptr %14, i32 0, i32 11
  %111 = getelementptr inbounds nuw %struct.FindData, ptr %12, i32 0, i32 0
  %112 = getelementptr inbounds [2048 x i32], ptr %111, i64 0, i64 0
  invoke void @_ZN10StringList9AddStringEPKw(ptr noundef nonnull align 8 dereferenceable(184) %110, ptr noundef %112)
          to label %113 unwind label %105

113:                                              ; preds = %109
  call void @llvm.lifetime.end.p0(i64 8, ptr %13) #12
  br label %114

114:                                              ; preds = %113, %69
  br label %66, !llvm.loop !63

115:                                              ; preds = %68
  %116 = getelementptr inbounds nuw %class.ScanTree, ptr %14, i32 0, i32 11
  %117 = invoke noundef i64 @_ZN10StringList10ItemsCountEv(ptr noundef nonnull align 8 dereferenceable(184) %116)
          to label %118 unwind label %101

118:                                              ; preds = %115
  %119 = icmp eq i64 %117, 0
  br i1 %119, label %120, label %121

120:                                              ; preds = %118
  store i1 false, ptr %2, align 1
  store i32 1, ptr %7, align 4
  br label %127

121:                                              ; preds = %118
  %122 = getelementptr inbounds nuw %class.ScanTree, ptr %14, i32 0, i32 11
  %123 = getelementptr inbounds nuw %class.ScanTree, ptr %14, i32 0, i32 9
  %124 = getelementptr inbounds [2048 x i32], ptr %123, i64 0, i64 0
  %125 = invoke noundef zeroext i1 @_ZN10StringList9GetStringEPwm(ptr noundef nonnull align 8 dereferenceable(184) %122, ptr noundef %124, i64 noundef 2048)
          to label %126 unwind label %101

126:                                              ; preds = %121
  store i1 true, ptr %2, align 1
  store i32 1, ptr %7, align 4
  br label %127

127:                                              ; preds = %126, %120
  call void @llvm.lifetime.end.p0(i64 8240, ptr %12) #12
  call void @_ZN8FindFileD1Ev(ptr noundef nonnull align 8 dereferenceable(8208) %9) #12
  call void @llvm.lifetime.end.p0(i64 8208, ptr %9) #12
  call void @llvm.lifetime.end.p0(i64 8192, ptr %8) #12
  call void @llvm.lifetime.end.p0(i64 4, ptr %5) #12
  call void @llvm.lifetime.end.p0(i64 1, ptr %4) #12
  %128 = load i1, ptr %2, align 1
  ret i1 %128

129:                                              ; preds = %105, %101
  call void @llvm.lifetime.end.p0(i64 8240, ptr %12) #12
  br label %130

130:                                              ; preds = %129, %97
  call void @_ZN8FindFileD1Ev(ptr noundef nonnull align 8 dereferenceable(8208) %9) #12
  call void @llvm.lifetime.end.p0(i64 8208, ptr %9) #12
  call void @llvm.lifetime.end.p0(i64 8192, ptr %8) #12
  call void @llvm.lifetime.end.p0(i64 4, ptr %5) #12
  call void @llvm.lifetime.end.p0(i64 1, ptr %4) #12
  br label %131

131:                                              ; preds = %130
  %132 = load ptr, ptr %10, align 8
  %133 = load i32, ptr %11, align 4
  %134 = insertvalue { ptr, i32 } poison, ptr %132, 0
  %135 = insertvalue { ptr, i32 } %134, i32 %133, 1
  resume { ptr, i32 } %135
}