; Function Attrs: mustprogress uwtable
define noundef zeroext i1 @_ZN8ScanTree16ExpandFolderMaskEv(ptr noundef nonnull align 8 dereferenceable(33216) %0) local_unnamed_addr #0 align 2 personality ptr @__gxx_personality_v0 {
  %2 = alloca [2048 x i32], align 16
  %3 = alloca %class.FindFile, align 8
  %4 = alloca %struct.FindData, align 8
  %5 = getelementptr inbounds nuw i8, ptr %0, i64 8228
  br label %6

6:                                                ; preds = %11, %1
  %indvars.iv = phi i64 [ %indvars.iv.next, %11 ], [ 0, %1 ]
  %.019 = phi i1 [ %.12025, %11 ], [ false, %1 ]
  %7 = getelementptr inbounds nuw [2048 x i32], ptr %5, i64 0, i64 %indvars.iv
  %8 = load i32, ptr %7, align 4, !tbaa !23
  switch i32 %8, label %9 [
    i32 0, label %12
    i32 63, label %.thread
    i32 42, label %.thread
  ]

9:                                                ; preds = %6
  br i1 %.019, label %.thread, label %11

.thread:                                          ; preds = %6, %6, %9
  %10 = tail call noundef zeroext i1 @_Z9IsPathDivi(i32 noundef %8)
  br i1 %10, label %12, label %11

11:                                               ; preds = %9, %.thread
  %.12025 = phi i1 [ false, %9 ], [ true, %.thread ]
  %indvars.iv.next = add nuw nsw i64 %indvars.iv, 1
  br label %6, !llvm.loop !56

12:                                               ; preds = %.thread, %6
  %.018 = phi i64 [ 0, %6 ], [ %indvars.iv, %.thread ]
  call void @llvm.lifetime.start.p0(i64 8192, ptr nonnull %2) #13
  call void @_Z8wcsncpyzPwPKwm(ptr noundef nonnull %2, ptr noundef nonnull %5, i64 noundef 2048)
  %13 = getelementptr inbounds nuw [2048 x i32], ptr %2, i64 0, i64 %.018
  store i32 0, ptr %13, align 4, !tbaa !23
  %14 = getelementptr inbounds nuw i8, ptr %0, i64 24616
  call void @_ZN10StringList5ResetEv(ptr noundef nonnull align 8 dereferenceable(184) %14)
  call void @llvm.lifetime.start.p0(i64 8208, ptr nonnull %3) #13
  call void @_ZN8FindFileC1Ev(ptr noundef nonnull align 8 dereferenceable(8208) %3)
  invoke void @_ZN8FindFile7SetMaskEPKw(ptr noundef nonnull align 8 dereferenceable(8208) %3, ptr noundef nonnull %2)
          to label %15 unwind label %35

15:                                               ; preds = %12
  call void @llvm.lifetime.start.p0(i64 8240, ptr nonnull %4) #13
  %16 = getelementptr inbounds nuw i8, ptr %4, i64 8208
  call void @llvm.memset.p0.i64(ptr noundef nonnull align 8 dereferenceable(24) %16, i8 0, i64 24, i1 false)
  %17 = getelementptr inbounds nuw i8, ptr %4, i64 8204
  %18 = getelementptr inbounds nuw i32, ptr %5, i64 %.018
  br label %19

19:                                               ; preds = %.backedge, %15
  %20 = invoke noundef zeroext i1 @_ZN8FindFile4NextEP8FindDatab(ptr noundef nonnull align 8 dereferenceable(8208) %3, ptr noundef nonnull %4, i1 noundef zeroext false)
          to label %21 unwind label %.loopexit

21:                                               ; preds = %19
  br i1 %20, label %22, label %40

22:                                               ; preds = %21
  %23 = load i8, ptr %17, align 4, !tbaa !34, !range !37, !noundef !38
  %24 = trunc nuw i8 %23 to i1
  br i1 %24, label %25, label %.backedge

25:                                               ; preds = %22
  invoke void @_Z8wcsncatzPwPKwm(ptr noundef nonnull %4, ptr noundef nonnull %18, i64 noundef 2048)
          to label %26 unwind label %.loopexit

26:                                               ; preds = %25
  %27 = invoke noundef ptr @_Z11PointToNamePKw(ptr noundef nonnull %4)
          to label %28 unwind label %37

28:                                               ; preds = %26
  %29 = call i32 @wcscmp(ptr noundef %27, ptr noundef nonnull @.str) #15
  %30 = icmp eq i32 %29, 0
  br i1 %30, label %34, label %31

31:                                               ; preds = %28
  %32 = call i32 @wcscmp(ptr noundef %27, ptr noundef nonnull @.str.1) #15
  %33 = icmp eq i32 %32, 0
  br i1 %33, label %34, label %39

34:                                               ; preds = %31, %28
  invoke void @_Z18RemoveNameFromPathPw(ptr noundef nonnull %4)
          to label %39 unwind label %37

35:                                               ; preds = %12
  %36 = landingpad { ptr, i32 }
          cleanup
  br label %48

.loopexit:                                        ; preds = %19, %25
  %lpad.loopexit = landingpad { ptr, i32 }
          cleanup
  br label %47

.loopexit.split-lp:                               ; preds = %44
  %lpad.loopexit.split-lp = landingpad { ptr, i32 }
          cleanup
  br label %47

37:                                               ; preds = %39, %34, %26
  %38 = landingpad { ptr, i32 }
          cleanup
  br label %47

39:                                               ; preds = %34, %31
  invoke void @_ZN10StringList9AddStringEPKw(ptr noundef nonnull align 8 dereferenceable(184) %14, ptr noundef nonnull %4)
          to label %.backedge unwind label %37

.backedge:                                        ; preds = %39, %22
  br label %19, !llvm.loop !57

40:                                               ; preds = %21
  %41 = getelementptr inbounds nuw i8, ptr %0, i64 24656
  %42 = load i64, ptr %41, align 8, !tbaa !39
  %43 = icmp ne i64 %42, 0
  br i1 %43, label %44, label %46

44:                                               ; preds = %40
  %45 = invoke noundef zeroext i1 @_ZN10StringList9GetStringEPwm(ptr noundef nonnull align 8 dereferenceable(184) %14, ptr noundef nonnull %5, i64 noundef 2048)
          to label %46 unwind label %.loopexit.split-lp

46:                                               ; preds = %44, %40
  call void @llvm.lifetime.end.p0(i64 8240, ptr nonnull %4) #13
  call void @_ZN8FindFileD1Ev(ptr noundef nonnull align 8 dereferenceable(8208) %3) #13
  call void @llvm.lifetime.end.p0(i64 8208, ptr nonnull %3) #13
  call void @llvm.lifetime.end.p0(i64 8192, ptr nonnull %2) #13
  ret i1 %43

47:                                               ; preds = %.loopexit, %.loopexit.split-lp, %37
  %.pn = phi { ptr, i32 } [ %38, %37 ], [ %lpad.loopexit, %.loopexit ], [ %lpad.loopexit.split-lp, %.loopexit.split-lp ]
  call void @llvm.lifetime.end.p0(i64 8240, ptr nonnull %4) #13
  br label %48

48:                                               ; preds = %47, %35
  %.pn.pn = phi { ptr, i32 } [ %.pn, %47 ], [ %36, %35 ]
  call void @_ZN8FindFileD1Ev(ptr noundef nonnull align 8 dereferenceable(8208) %3) #13
  call void @llvm.lifetime.end.p0(i64 8208, ptr nonnull %3) #13
  call void @llvm.lifetime.end.p0(i64 8192, ptr nonnull %2) #13
  resume { ptr, i32 } %.pn.pn
}